; Function Attrs: mustprogress nounwind uwtable
define hidden noundef zeroext i1 @_ZNK20SharedClassPathEntry18check_non_existentEv(ptr nocapture noundef nonnull readonly align 8 dereferenceable(40) %0) local_unnamed_addr #0 align 2 {
  %2 = alloca %struct.stat, align 8
  %3 = load volatile ptr, ptr getelementptr inbounds (i8, ptr @_ZN16LogTagSetMappingILN6LogTag4typeE16ELS1_111ELS1_0ELS1_0ELS1_0ELS1_0EE7_tagsetE, i64 64), align 8
  %.not5 = icmp eq ptr %3, null
  br i1 %.not5, label %18, label %4

4:                                                ; preds = %1
  %5 = tail call noundef zeroext i1 @_ZN9CDSConfig16is_using_archiveEv() #25
  %6 = load i8, ptr %0, align 8
  %7 = icmp eq i8 %6, 0
  %or.cond.i = select i1 %5, i1 %7, i1 false
  br i1 %or.cond.i, label %8, label %14

8:                                                ; preds = %4
  %9 = load ptr, ptr @_ZN11ClassLoader10_jrt_entryE, align 8
  %10 = load ptr, ptr %9, align 8
  %11 = getelementptr inbounds i8, ptr %10, i64 40
  %12 = load ptr, ptr %11, align 8
  %13 = tail call noundef ptr %12(ptr noundef nonnull align 8 dereferenceable(16) %9) #25
  br label %_ZNK20SharedClassPathEntry4nameEv.exit

14:                                               ; preds = %4
  %15 = getelementptr inbounds i8, ptr %0, i64 24
  %16 = load ptr, ptr %15, align 8
  %17 = getelementptr inbounds i8, ptr %16, i64 4
  br label %_ZNK20SharedClassPathEntry4nameEv.exit

_ZNK20SharedClassPathEntry4nameEv.exit:           ; preds = %8, %14
  %.0.i = phi ptr [ %13, %8 ], [ %17, %14 ]
  tail call void (ptr, ...) @_ZN7LogImplILN6LogTag4typeE16ELS1_111ELS1_0ELS1_0ELS1_0ELS1_0EE5writeILN8LogLevel4typeE3EEEvPKcz(ptr noundef nonnull @.str.54, ptr noundef %.0.i)
  br label %18

18:                                               ; preds = %1, %_ZNK20SharedClassPathEntry4nameEv.exit
  %19 = tail call noundef zeroext i1 @_ZN9CDSConfig16is_using_archiveEv() #25
  %20 = load i8, ptr %0, align 8
  %21 = icmp eq i8 %20, 0
  %or.cond.i2 = select i1 %19, i1 %21, i1 false
  br i1 %or.cond.i2, label %22, label %28

22:                                               ; preds = %18
  %23 = load ptr, ptr @_ZN11ClassLoader10_jrt_entryE, align 8
  %24 = load ptr, ptr %23, align 8
  %25 = getelementptr inbounds i8, ptr %24, i64 40
  %26 = load ptr, ptr %25, align 8
  %27 = tail call noundef ptr %26(ptr noundef nonnull align 8 dereferenceable(16) %23) #25
  br label %_ZNK20SharedClassPathEntry4nameEv.exit4

28:                                               ; preds = %18
  %29 = getelementptr inbounds i8, ptr %0, i64 24
  %30 = load ptr, ptr %29, align 8
  %31 = getelementptr inbounds i8, ptr %30, i64 4
  br label %_ZNK20SharedClassPathEntry4nameEv.exit4

_ZNK20SharedClassPathEntry4nameEv.exit4:          ; preds = %22, %28
  %.0.i3 = phi ptr [ %27, %22 ], [ %31, %28 ]
  %32 = call noundef i32 @_ZN2os4statEPKcP4stat(ptr noundef %.0.i3, ptr noundef nonnull %2) #25
  %.not = icmp ne i32 %32, 0
  br i1 %.not, label %33, label %36

33:                                               ; preds = %_ZNK20SharedClassPathEntry4nameEv.exit4
  %34 = load volatile ptr, ptr getelementptr inbounds (i8, ptr @_ZN16LogTagSetMappingILN6LogTag4typeE16ELS1_111ELS1_0ELS1_0ELS1_0ELS1_0EE7_tagsetE, i64 64), align 8
  %.not6 = icmp eq ptr %34, null
  br i1 %.not6, label %36, label %35

35:                                               ; preds = %33
  call void (ptr, ...) @_ZN7LogImplILN6LogTag4typeE16ELS1_111ELS1_0ELS1_0ELS1_0ELS1_0EE5writeILN8LogLevel4typeE3EEEvPKcz(ptr noundef nonnull @.str.55)
  br label %36

36:                                               ; preds = %_ZNK20SharedClassPathEntry4nameEv.exit4, %35, %33
  ret i1 %.not
}